ccollections
OrderedDict
p0
((lp1
(lp2
(F1.0
F0.0
F0.0
F0.0
F0.0
F0.0
F0.0
F0.0
F0.0
F0.0
tp3
aS'1'
p4
aa(lp5
(F0.0
F1.0
F0.0
F0.0
F0.0
F0.0
F0.0
F0.0
F0.0
F0.0
tp6
aS'0'
p7
aa(lp8
(F0.0
F0.0
F1.0
F0.0
F0.0
F0.0
F0.0
F0.0
F0.0
F0.0
tp9
aS'3'
p10
aa(lp11
(F0.0
F0.0
F0.0
F1.0
F0.0
F0.0
F0.0
F0.0
F0.0
F0.0
tp12
aS'2'
p13
aa(lp14
(F0.0
F0.0
F0.0
F0.0
F1.0
F0.0
F0.0
F0.0
F0.0
F0.0
tp15
aS'-1'
p16
aa(lp17
(F0.0
F0.0
F0.0
F0.0
F0.0
F1.0
F0.0
F0.0
F0.0
F0.0
tp18
aS'4'
p19
aa(lp20
(F0.0
F0.0
F0.0
F0.0
F0.0
F0.0
F1.0
F0.0
F0.0
F0.0
tp21
aS'7'
p22
aa(lp23
(F0.0
F0.0
F0.0
F0.0
F0.0
F0.0
F0.0
F1.0
F0.0
F0.0
tp24
aS'6'
p25
aa(lp26
(F0.0
F0.0
F0.0
F0.0
F0.0
F0.0
F0.0
F0.0
F1.0
F0.0
tp27
aS'5'
p28
aa(lp29
(F0.0
F0.0
F0.0
F0.0
F0.0
F0.0
F0.0
F0.0
F0.0
F1.0
tp30
aS'8'
p31
aatp32
Rp33
.